; Function Attrs: mustprogress nofree norecurse nosync nounwind willreturn memory(argmem: write) uwtable
define range(i32 0, 2) i32 @ossl_rsa_pss_params_30_set_hashalg(ptr noundef writeonly captures(address_is_null) %0, i32 noundef %1) local_unnamed_addr #6 {
  %3 = icmp eq ptr %0, null
  br i1 %3, label %5, label %4

4:                                                ; preds = %2
  store i32 %1, ptr %0, align 4, !tbaa !30
  br label %5

5:                                                ; preds = %2, %4
  %.0 = phi i32 [ 1, %4 ], [ 0, %2 ]
  ret i32 %.0
}